; Function Attrs: mustprogress nofree norecurse nosync nounwind willreturn memory(read, inaccessiblemem: none) uwtable
define ptr @X509_get0_trust_objects(ptr noundef readonly captures(none) %0) local_unnamed_addr #5 {
  %2 = getelementptr inbounds nuw i8, ptr %0, i64 336
  %3 = load ptr, ptr %2, align 8, !tbaa !3
  %.not = icmp eq ptr %3, null
  br i1 %.not, label %6, label %4

4:                                                ; preds = %1
  %5 = load ptr, ptr %3, align 8, !tbaa !43
  br label %6

6:                                                ; preds = %1, %4
  %.0 = phi ptr [ %5, %4 ], [ null, %1 ]
  ret ptr %.0
}